; ModuleID = 'source-C-CXX/8/1574.c'
source_filename = "source-C-CXX/8/1574.c"
target datalayout = "e-m:e-p270:32:32-p271:32:32-p272:64:64-i64:64-f80:128-n8:16:32:64-S128"
target triple = "x86_64-pc-linux-gnu"

%struct.br = type { [10 x i8], i32 }

@.str = private unnamed_addr constant [3 x i8] c"%d\00", align 1
@.str.1 = private unnamed_addr constant [6 x i8] c"%s %d\00", align 1

; Function Attrs: nofree nounwind sspstrong uwtable
define dso_local void @main() local_unnamed_addr #0 {
  %1 = alloca [100 x %struct.br], align 16
  %2 = alloca [100 x %struct.br], align 16
  %3 = alloca %struct.br, align 4
  %4 = alloca i32, align 4
  %5 = getelementptr inbounds [100 x %struct.br], [100 x %struct.br]* %1, i64 0, i64 0, i32 0, i64 0
  call void @llvm.lifetime.start.p0i8(i64 1600, i8* nonnull %5) #5
  %6 = getelementptr inbounds [100 x %struct.br], [100 x %struct.br]* %2, i64 0, i64 0, i32 0, i64 0
  call void @llvm.lifetime.start.p0i8(i64 1600, i8* nonnull %6) #5
  %7 = getelementptr inbounds %struct.br, %struct.br* %3, i64 0, i32 0, i64 0
  call void @llvm.lifetime.start.p0i8(i64 16, i8* nonnull %7)
  %8 = bitcast i32* %4 to i8*
  call void @llvm.lifetime.start.p0i8(i64 4, i8* nonnull %8) #5
  %9 = call i32 (i8*, ...) @__isoc99_scanf(i8* getelementptr inbounds ([3 x i8], [3 x i8]* @.str, i64 0, i64 0), i32* nonnull %4)
  %10 = load i32, i32* %4, align 4, !tbaa !5
  %11 = icmp sgt i32 %10, 0
  br i1 %11, label %14, label %86

12:                                               ; preds = %26
  %13 = icmp sgt i32 %27, 1
  br i1 %13, label %32, label %38

14:                                               ; preds = %0, %26
  %15 = phi i64 [ %28, %26 ], [ 0, %0 ]
  %16 = phi i32 [ %27, %26 ], [ 0, %0 ]
  %17 = getelementptr inbounds [100 x %struct.br], [100 x %struct.br]* %1, i64 0, i64 %15, i32 0, i64 0
  %18 = getelementptr inbounds [100 x %struct.br], [100 x %struct.br]* %1, i64 0, i64 %15, i32 1
  %19 = call i32 (i8*, ...) @__isoc99_scanf(i8* getelementptr inbounds ([6 x i8], [6 x i8]* @.str.1, i64 0, i64 0), i8* nonnull %17, i32* nonnull %18)
  %20 = load i32, i32* %18, align 4, !tbaa !9
  %21 = icmp sgt i32 %20, 59
  br i1 %21, label %22, label %26

22:                                               ; preds = %14
  %23 = sext i32 %16 to i64
  %24 = getelementptr inbounds [100 x %struct.br], [100 x %struct.br]* %2, i64 0, i64 %23, i32 0, i64 0
  call void @llvm.memcpy.p0i8.p0i8.i64(i8* noundef nonnull align 16 dereferenceable(16) %24, i8* noundef nonnull align 16 dereferenceable(16) %17, i64 16, i1 false), !tbaa.struct !11
  %25 = add nsw i32 %16, 1
  br label %26

26:                                               ; preds = %14, %22
  %27 = phi i32 [ %25, %22 ], [ %16, %14 ]
  %28 = add nuw nsw i64 %15, 1
  %29 = load i32, i32* %4, align 4, !tbaa !5
  %30 = sext i32 %29 to i64
  %31 = icmp slt i64 %28, %30
  br i1 %31, label %14, label %12, !llvm.loop !13

32:                                               ; preds = %12, %56
  %33 = phi i32 [ %58, %56 ], [ %27, %12 ]
  %34 = phi i32 [ %57, %56 ], [ 1, %12 ]
  %35 = icmp sgt i32 %27, %34
  br i1 %35, label %36, label %56

36:                                               ; preds = %32
  %37 = zext i32 %33 to i64
  br label %42

38:                                               ; preds = %56, %12
  %39 = icmp sgt i32 %27, 0
  br i1 %39, label %40, label %62

40:                                               ; preds = %38
  %41 = zext i32 %27 to i64
  br label %65

42:                                               ; preds = %36, %53
  %43 = phi i64 [ 1, %36 ], [ %54, %53 ]
  %44 = getelementptr inbounds [100 x %struct.br], [100 x %struct.br]* %2, i64 0, i64 %43, i32 1
  %45 = load i32, i32* %44, align 4, !tbaa !9
  %46 = add nsw i64 %43, -1
  %47 = getelementptr inbounds [100 x %struct.br], [100 x %struct.br]* %2, i64 0, i64 %46, i32 1
  %48 = load i32, i32* %47, align 4, !tbaa !9
  %49 = icmp sgt i32 %45, %48
  br i1 %49, label %50, label %53

50:                                               ; preds = %42
  %51 = getelementptr inbounds [100 x %struct.br], [100 x %struct.br]* %2, i64 0, i64 %46, i32 0, i64 0
  call void @llvm.memcpy.p0i8.p0i8.i64(i8* noundef nonnull align 4 dereferenceable(16) %7, i8* noundef nonnull align 16 dereferenceable(16) %51, i64 16, i1 false), !tbaa.struct !11
  %52 = getelementptr inbounds [100 x %struct.br], [100 x %struct.br]* %2, i64 0, i64 %43, i32 0, i64 0
  call void @llvm.memcpy.p0i8.p0i8.i64(i8* noundef nonnull align 16 dereferenceable(16) %51, i8* noundef nonnull align 16 dereferenceable(16) %52, i64 16, i1 false), !tbaa.struct !11
  call void @llvm.memcpy.p0i8.p0i8.i64(i8* noundef nonnull align 16 dereferenceable(16) %52, i8* noundef nonnull align 4 dereferenceable(16) %7, i64 16, i1 false), !tbaa.struct !11
  br label %53

53:                                               ; preds = %42, %50
  %54 = add nuw nsw i64 %43, 1
  %55 = icmp eq i64 %54, %37
  br i1 %55, label %56, label %42, !llvm.loop !15

56:                                               ; preds = %53, %32
  %57 = add nuw nsw i32 %34, 1
  %58 = add i32 %33, -1
  %59 = icmp eq i32 %57, %27
  br i1 %59, label %38, label %32, !llvm.loop !16

60:                                               ; preds = %65
  %61 = load i32, i32* %4, align 4, !tbaa !5
  br label %62

62:                                               ; preds = %60, %38
  %63 = phi i32 [ %61, %60 ], [ %29, %38 ]
  %64 = icmp sgt i32 %63, 0
  br i1 %64, label %71, label %86

65:                                               ; preds = %40, %65
  %66 = phi i64 [ 0, %40 ], [ %69, %65 ]
  %67 = getelementptr inbounds [100 x %struct.br], [100 x %struct.br]* %2, i64 0, i64 %66, i32 0, i64 0
  %68 = call i32 @puts(i8* nonnull %67)
  %69 = add nuw nsw i64 %66, 1
  %70 = icmp eq i64 %69, %41
  br i1 %70, label %60, label %65, !llvm.loop !17

71:                                               ; preds = %62, %81
  %72 = phi i32 [ %82, %81 ], [ %63, %62 ]
  %73 = phi i64 [ %83, %81 ], [ 0, %62 ]
  %74 = getelementptr inbounds [100 x %struct.br], [100 x %struct.br]* %1, i64 0, i64 %73, i32 1
  %75 = load i32, i32* %74, align 4, !tbaa !9
  %76 = icmp slt i32 %75, 60
  br i1 %76, label %77, label %81

77:                                               ; preds = %71
  %78 = getelementptr inbounds [100 x %struct.br], [100 x %struct.br]* %1, i64 0, i64 %73, i32 0, i64 0
  %79 = call i32 @puts(i8* nonnull %78)
  %80 = load i32, i32* %4, align 4, !tbaa !5
  br label %81

81:                                               ; preds = %71, %77
  %82 = phi i32 [ %72, %71 ], [ %80, %77 ]
  %83 = add nuw nsw i64 %73, 1
  %84 = sext i32 %82 to i64
  %85 = icmp slt i64 %83, %84
  br i1 %85, label %71, label %86, !llvm.loop !18

86:                                               ; preds = %81, %0, %62
  call void @llvm.lifetime.end.p0i8(i64 4, i8* nonnull %8) #5
  call void @llvm.lifetime.end.p0i8(i64 16, i8* nonnull %7)
  call void @llvm.lifetime.end.p0i8(i64 1600, i8* nonnull %6) #5
  call void @llvm.lifetime.end.p0i8(i64 1600, i8* nonnull %5) #5
  ret void
}

; Function Attrs: argmemonly mustprogress nofree nosync nounwind willreturn
declare void @llvm.lifetime.start.p0i8(i64 immarg, i8* nocapture) #1

; Function Attrs: nofree nounwind
declare noundef i32 @__isoc99_scanf(i8* nocapture noundef readonly, ...) local_unnamed_addr #2

; Function Attrs: argmemonly mustprogress nofree nounwind willreturn
declare void @llvm.memcpy.p0i8.p0i8.i64(i8* noalias nocapture writeonly, i8* noalias nocapture readonly, i64, i1 immarg) #3

; Function Attrs: argmemonly mustprogress nofree nosync nounwind willreturn
declare void @llvm.lifetime.end.p0i8(i64 immarg, i8* nocapture) #1

; Function Attrs: nofree nounwind
declare noundef i32 @puts(i8* nocapture noundef readonly) local_unnamed_addr #4


!llvm.module.flags = !{!0, !1, !2, !3}
!llvm.ident = !{!4}

!0 = !{i32 1, !"wchar_size", i32 4}
!1 = !{i32 7, !"PIC Level", i32 2}
!2 = !{i32 7, !"PIE Level", i32 2}
!3 = !{i32 7, !"uwtable", i32 1}
!4 = !{!"clang version 13.0.0"}
!5 = !{!6, !6, i64 0}
!6 = !{!"int", !7, i64 0}
!7 = !{!"omnipotent char", !8, i64 0}
!8 = !{!"Simple C/C++ TBAA"}
!9 = !{!10, !6, i64 12}
!10 = !{!"br", !7, i64 0, !6, i64 12}
!11 = !{i64 0, i64 10, !12, i64 12, i64 4, !5}
!12 = !{!7, !7, i64 0}
!13 = distinct !{!13, !14}
!14 = !{!"llvm.loop.mustprogress"}
!15 = distinct !{!15, !14}
!16 = distinct !{!16, !14}
!17 = distinct !{!17, !14}
!18 = distinct !{!18, !14}
